target datalayout = "e-m:e-p270:32:32-p271:32:32-p272:64:64-i64:64-i128:128-f80:128-n8:16:32:64-S128"
target triple = "x86_64-pc-linux-gnu"

%struct.mbedtls_mpi = type { i32, i64, ptr }

; Function Attrs: mustprogress uwtable
define internal void @_ZL19mbedtls_mpi_zeroizePmm(ptr noundef %0, i64 noundef %1) #1 {
  %3 = alloca ptr, align 8
  %4 = alloca i64, align 8
  store ptr %0, ptr %3, align 8, !tbaa !15
  store i64 %1, ptr %4, align 8, !tbaa !16
  %5 = load ptr, ptr %3, align 8, !tbaa !15
  %6 = load i64, ptr %4, align 8, !tbaa !16
  %7 = mul i64 8, %6
  call void @mbedtls_platform_zeroize(ptr noundef %5, i64 noundef %7)
  ret void
}

; Function Attrs: mustprogress uwtable
define hidden i32 @mbedtls_mpi_grow(ptr noundef %0, i64 noundef %1) #1 {
  %3 = alloca i32, align 4
  %4 = alloca ptr, align 8
  %5 = alloca i64, align 8
  %6 = alloca ptr, align 8
  %7 = alloca i32, align 4
  store ptr %0, ptr %4, align 8, !tbaa !3
  store i64 %1, ptr %5, align 8, !tbaa !16
  call void @llvm.lifetime.start.p0(i64 8, ptr %6) #10
  br label %8

8:                                                ; preds = %2
  br label %9

9:                                                ; preds = %8
  br label %10

10:                                               ; preds = %9
  %11 = load i64, ptr %5, align 8, !tbaa !16
  %12 = icmp ugt i64 %11, 10000
  br i1 %12, label %13, label %14

13:                                               ; preds = %10
  store i32 -16, ptr %3, align 4
  store i32 1, ptr %7, align 4
  br label %56

14:                                               ; preds = %10
  %15 = load ptr, ptr %4, align 8, !tbaa !3
  %16 = getelementptr inbounds nuw %struct.mbedtls_mpi, ptr %15, i32 0, i32 1
  %17 = load i64, ptr %16, align 8, !tbaa !13
  %18 = load i64, ptr %5, align 8, !tbaa !16
  %19 = icmp ult i64 %17, %18
  br i1 %19, label %20, label %55

20:                                               ; preds = %14
  %21 = load i64, ptr %5, align 8, !tbaa !16
  %22 = call noalias ptr @calloc(i64 noundef %21, i64 noundef 8) #11
  store ptr %22, ptr %6, align 8, !tbaa !15
  %23 = icmp eq ptr %22, null
  br i1 %23, label %24, label %25

24:                                               ; preds = %20
  store i32 -16, ptr %3, align 4
  store i32 1, ptr %7, align 4
  br label %56

25:                                               ; preds = %20
  %26 = load ptr, ptr %4, align 8, !tbaa !3
  %27 = getelementptr inbounds nuw %struct.mbedtls_mpi, ptr %26, i32 0, i32 2
  %28 = load ptr, ptr %27, align 8, !tbaa !14
  %29 = icmp ne ptr %28, null
  br i1 %29, label %30, label %48

30:                                               ; preds = %25
  %31 = load ptr, ptr %6, align 8, !tbaa !15
  %32 = load ptr, ptr %4, align 8, !tbaa !3
  %33 = getelementptr inbounds nuw %struct.mbedtls_mpi, ptr %32, i32 0, i32 2
  %34 = load ptr, ptr %33, align 8, !tbaa !14
  %35 = load ptr, ptr %4, align 8, !tbaa !3
  %36 = getelementptr inbounds nuw %struct.mbedtls_mpi, ptr %35, i32 0, i32 1
  %37 = load i64, ptr %36, align 8, !tbaa !13
  %38 = mul i64 %37, 8
  call void @llvm.memcpy.p0.p0.i64(ptr align 8 %31, ptr align 8 %34, i64 %38, i1 false)
  %39 = load ptr, ptr %4, align 8, !tbaa !3
  %40 = getelementptr inbounds nuw %struct.mbedtls_mpi, ptr %39, i32 0, i32 2
  %41 = load ptr, ptr %40, align 8, !tbaa !14
  %42 = load ptr, ptr %4, align 8, !tbaa !3
  %43 = getelementptr inbounds nuw %struct.mbedtls_mpi, ptr %42, i32 0, i32 1
  %44 = load i64, ptr %43, align 8, !tbaa !13
  call void @_ZL19mbedtls_mpi_zeroizePmm(ptr noundef %41, i64 noundef %44)
  %45 = load ptr, ptr %4, align 8, !tbaa !3
  %46 = getelementptr inbounds nuw %struct.mbedtls_mpi, ptr %45, i32 0, i32 2
  %47 = load ptr, ptr %46, align 8, !tbaa !14
  call void @free(ptr noundef %47) #10
  br label %48

48:                                               ; preds = %30, %25
  %49 = load i64, ptr %5, align 8, !tbaa !16
  %50 = load ptr, ptr %4, align 8, !tbaa !3
  %51 = getelementptr inbounds nuw %struct.mbedtls_mpi, ptr %50, i32 0, i32 1
  store i64 %49, ptr %51, align 8, !tbaa !13
  %52 = load ptr, ptr %6, align 8, !tbaa !15
  %53 = load ptr, ptr %4, align 8, !tbaa !3
  %54 = getelementptr inbounds nuw %struct.mbedtls_mpi, ptr %53, i32 0, i32 2
  store ptr %52, ptr %54, align 8, !tbaa !14
  br label %55

55:                                               ; preds = %48, %14
  store i32 0, ptr %3, align 4
  store i32 1, ptr %7, align 4
  br label %56

56:                                               ; preds = %55, %24, %13
  call void @llvm.lifetime.end.p0(i64 8, ptr %6) #10
  %57 = load i32, ptr %3, align 4
  ret i32 %57
}

; Function Attrs: mustprogress uwtable
define hidden i32 @mbedtls_mpi_lset(ptr noundef %0, i64 noundef %1) #1 {
  %3 = alloca ptr, align 8
  %4 = alloca i64, align 8
  %5 = alloca i32, align 4
  store ptr %0, ptr %3, align 8, !tbaa !3
  store i64 %1, ptr %4, align 8, !tbaa !16
  call void @llvm.lifetime.start.p0(i64 4, ptr %5) #10
  store i32 -110, ptr %5, align 4, !tbaa !19
  br label %6

6:                                                ; preds = %2
  br label %7

7:                                                ; preds = %6
  br label %8

8:                                                ; preds = %7
  br label %9

9:                                                ; preds = %8
  %10 = load ptr, ptr %3, align 8, !tbaa !3
  %11 = call i32 @mbedtls_mpi_grow(ptr noundef %10, i64 noundef 1)
  store i32 %11, ptr %5, align 4, !tbaa !19
  %12 = icmp ne i32 %11, 0
  br i1 %12, label %13, label %14

13:                                               ; preds = %9
  br label %42

14:                                               ; preds = %9
  br label %15

15:                                               ; preds = %14
  br label %16

16:                                               ; preds = %15
  %17 = load ptr, ptr %3, align 8, !tbaa !3
  %18 = getelementptr inbounds nuw %struct.mbedtls_mpi, ptr %17, i32 0, i32 2
  %19 = load ptr, ptr %18, align 8, !tbaa !14
  %20 = load ptr, ptr %3, align 8, !tbaa !3
  %21 = getelementptr inbounds nuw %struct.mbedtls_mpi, ptr %20, i32 0, i32 1
  %22 = load i64, ptr %21, align 8, !tbaa !13
  %23 = mul i64 %22, 8
  call void @llvm.memset.p0.i64(ptr align 8 %19, i8 0, i64 %23, i1 false)
  %24 = load i64, ptr %4, align 8, !tbaa !16
  %25 = icmp slt i64 %24, 0
  br i1 %25, label %26, label %29

26:                                               ; preds = %16
  %27 = load i64, ptr %4, align 8, !tbaa !16
  %28 = sub nsw i64 0, %27
  br label %31

29:                                               ; preds = %16
  %30 = load i64, ptr %4, align 8, !tbaa !16
  br label %31

31:                                               ; preds = %29, %26
  %32 = phi i64 [ %28, %26 ], [ %30, %29 ]
  %33 = load ptr, ptr %3, align 8, !tbaa !3
  %34 = getelementptr inbounds nuw %struct.mbedtls_mpi, ptr %33, i32 0, i32 2
  %35 = load ptr, ptr %34, align 8, !tbaa !14
  %36 = getelementptr inbounds i64, ptr %35, i64 0
  store i64 %32, ptr %36, align 8, !tbaa !16
  %37 = load i64, ptr %4, align 8, !tbaa !16
  %38 = icmp slt i64 %37, 0
  %39 = select i1 %38, i32 -1, i32 1
  %40 = load ptr, ptr %3, align 8, !tbaa !3
  %41 = getelementptr inbounds nuw %struct.mbedtls_mpi, ptr %40, i32 0, i32 0
  store i32 %39, ptr %41, align 8, !tbaa !8
  br label %42

42:                                               ; preds = %31, %13
  %43 = load i32, ptr %5, align 4, !tbaa !19
  call void @llvm.lifetime.end.p0(i64 4, ptr %5) #10
  ret i32 %43
}

; Function Attrs: mustprogress uwtable
define hidden i32 @mbedtls_mpi_mul_int(ptr noundef %0, ptr noundef %1, i64 noundef %2) #1 {
  %4 = alloca i32, align 4
  %5 = alloca ptr, align 8
  %6 = alloca ptr, align 8
  %7 = alloca i64, align 8
  %8 = alloca i64, align 8
  %9 = alloca i32, align 4
  %10 = alloca i32, align 4
  store ptr %0, ptr %5, align 8, !tbaa !3
  store ptr %1, ptr %6, align 8, !tbaa !3
  store i64 %2, ptr %7, align 8, !tbaa !16
  br label %11

11:                                               ; preds = %3
  br label %12

12:                                               ; preds = %11
  br label %13

13:                                               ; preds = %12
  br label %14

14:                                               ; preds = %13
  call void @llvm.lifetime.start.p0(i64 8, ptr %8) #10
  %15 = load ptr, ptr %6, align 8, !tbaa !3
  %16 = getelementptr inbounds nuw %struct.mbedtls_mpi, ptr %15, i32 0, i32 1
  %17 = load i64, ptr %16, align 8, !tbaa !13
  store i64 %17, ptr %8, align 8, !tbaa !16
  br label %18

18:                                               ; preds = %32, %14
  %19 = load i64, ptr %8, align 8, !tbaa !16
  %20 = icmp ugt i64 %19, 0
  br i1 %20, label %21, label %30

21:                                               ; preds = %18
  %22 = load ptr, ptr %6, align 8, !tbaa !3
  %23 = getelementptr inbounds nuw %struct.mbedtls_mpi, ptr %22, i32 0, i32 2
  %24 = load ptr, ptr %23, align 8, !tbaa !14
  %25 = load i64, ptr %8, align 8, !tbaa !16
  %26 = sub i64 %25, 1
  %27 = getelementptr inbounds nuw i64, ptr %24, i64 %26
  %28 = load i64, ptr %27, align 8, !tbaa !16
  %29 = icmp eq i64 %28, 0
  br label %30

30:                                               ; preds = %21, %18
  %31 = phi i1 [ false, %18 ], [ %29, %21 ]
  br i1 %31, label %32, label %35

32:                                               ; preds = %30
  %33 = load i64, ptr %8, align 8, !tbaa !16
  %34 = add i64 %33, -1
  store i64 %34, ptr %8, align 8, !tbaa !16
  br label %18, !llvm.loop !30

35:                                               ; preds = %30
  %36 = load i64, ptr %7, align 8, !tbaa !16
  %37 = icmp eq i64 %36, 0
  br i1 %37, label %41, label %38

38:                                               ; preds = %35
  %39 = load i64, ptr %8, align 8, !tbaa !16
  %40 = icmp eq i64 %39, 0
  br i1 %40, label %41, label %44

41:                                               ; preds = %38, %35
  %42 = load ptr, ptr %5, align 8, !tbaa !3
  %43 = call i32 @mbedtls_mpi_lset(ptr noundef %42, i64 noundef 0)
  store i32 %43, ptr %4, align 4
  store i32 1, ptr %9, align 4
  br label %75

44:                                               ; preds = %38
  call void @llvm.lifetime.start.p0(i64 4, ptr %10) #10
  store i32 -110, ptr %10, align 4, !tbaa !19
  br label %45

45:                                               ; preds = %44
  %46 = load ptr, ptr %5, align 8, !tbaa !3
  %47 = load i64, ptr %8, align 8, !tbaa !16
  %48 = add i64 %47, 1
  %49 = call i32 @mbedtls_mpi_grow(ptr noundef %46, i64 noundef %48)
  store i32 %49, ptr %10, align 4, !tbaa !19
  %50 = icmp ne i32 %49, 0
  br i1 %50, label %51, label %52

51:                                               ; preds = %45
  br label %73

52:                                               ; preds = %45
  br label %53

53:                                               ; preds = %52
  br label %54

54:                                               ; preds = %53
  br label %55

55:                                               ; preds = %54
  %56 = load ptr, ptr %5, align 8, !tbaa !3
  %57 = load ptr, ptr %6, align 8, !tbaa !3
  %58 = call i32 @mbedtls_mpi_copy(ptr noundef %56, ptr noundef %57)
  store i32 %58, ptr %10, align 4, !tbaa !19
  %59 = icmp ne i32 %58, 0
  br i1 %59, label %60, label %61

60:                                               ; preds = %55
  br label %73

61:                                               ; preds = %55
  br label %62

62:                                               ; preds = %61
  br label %63

63:                                               ; preds = %62
  %64 = load i64, ptr %8, align 8, !tbaa !16
  %65 = load ptr, ptr %6, align 8, !tbaa !3
  %66 = getelementptr inbounds nuw %struct.mbedtls_mpi, ptr %65, i32 0, i32 2
  %67 = load ptr, ptr %66, align 8, !tbaa !14
  %68 = load ptr, ptr %5, align 8, !tbaa !3
  %69 = getelementptr inbounds nuw %struct.mbedtls_mpi, ptr %68, i32 0, i32 2
  %70 = load ptr, ptr %69, align 8, !tbaa !14
  %71 = load i64, ptr %7, align 8, !tbaa !16
  %72 = sub i64 %71, 1
  call void @_ZL11mpi_mul_hlpmPKmPmm(i64 noundef %64, ptr noundef %67, ptr noundef %70, i64 noundef %72)
  br label %73

73:                                               ; preds = %63, %60, %51
  %74 = load i32, ptr %10, align 4, !tbaa !19
  store i32 %74, ptr %4, align 4
  store i32 1, ptr %9, align 4
  call void @llvm.lifetime.end.p0(i64 4, ptr %10) #10
  br label %75

75:                                               ; preds = %73, %41
  call void @llvm.lifetime.end.p0(i64 8, ptr %8) #10
  %76 = load i32, ptr %4, align 4
  ret i32 %76
}