; Function Attrs: mustprogress uwtable
define hidden range(i32 -16, 1) i32 @mbedtls_mpi_mul_int(ptr noundef captures(address) %0, ptr noundef captures(address) %1, i64 noundef %2) local_unnamed_addr #1 {
  %4 = getelementptr inbounds nuw i8, ptr %1, i64 8
  %5 = load i64, ptr %4, align 8, !tbaa !12
  %.not29 = icmp eq i64 %5, 0
  br i1 %.not29, label %.critedge.thread, label %.lr.ph

.lr.ph:                                           ; preds = %3
  %6 = getelementptr inbounds nuw i8, ptr %1, i64 16
  %7 = load ptr, ptr %6, align 8, !tbaa !11
  %invariant.gep = getelementptr i8, ptr %7, i64 -8
  br label %8

8:                                                ; preds = %.lr.ph, %11
  %.01830 = phi i64 [ %5, %.lr.ph ], [ %12, %11 ]
  %gep = getelementptr i64, ptr %invariant.gep, i64 %.01830
  %9 = load i64, ptr %gep, align 8, !tbaa !13
  %10 = icmp eq i64 %9, 0
  br i1 %10, label %11, label %.critedge

11:                                               ; preds = %8
  %12 = add i64 %.01830, -1
  %.not = icmp eq i64 %12, 0
  br i1 %.not, label %.critedge.thread, label %8, !llvm.loop !24

.critedge:                                        ; preds = %8
  %13 = icmp eq i64 %2, 0
  br i1 %13, label %.critedge.thread, label %32

.critedge.thread:                                 ; preds = %11, %3, %.critedge
  %14 = getelementptr inbounds nuw i8, ptr %0, i64 8
  %15 = load i64, ptr %14, align 8, !tbaa !12
  %16 = icmp eq i64 %15, 0
  br i1 %16, label %18, label %._crit_edge.i

._crit_edge.i:                                    ; preds = %.critedge.thread
  %.phi.trans.insert.i = getelementptr inbounds nuw i8, ptr %0, i64 16
  %.pre.i = load ptr, ptr %.phi.trans.insert.i, align 8, !tbaa !11
  %17 = shl i64 %15, 3
  br label %27

18:                                               ; preds = %.critedge.thread
  %19 = tail call noalias dereferenceable_or_null(8) ptr @calloc(i64 noundef 1, i64 noundef 8) #16
  %20 = icmp eq ptr %19, null
  br i1 %20, label %mbedtls_mpi_lset.exit, label %21

21:                                               ; preds = %18
  %22 = getelementptr inbounds nuw i8, ptr %0, i64 16
  %23 = load ptr, ptr %22, align 8, !tbaa !11
  %.not.i.i = icmp eq ptr %23, null
  br i1 %.not.i.i, label %26, label %24

24:                                               ; preds = %21
  tail call void @mbedtls_platform_zeroize(ptr noundef nonnull %23, i64 noundef 0)
  %25 = load ptr, ptr %22, align 8, !tbaa !11
  tail call void @free(ptr noundef %25) #15
  br label %26

26:                                               ; preds = %24, %21
  store i64 1, ptr %14, align 8, !tbaa !12
  store ptr %19, ptr %22, align 8, !tbaa !11
  br label %27

27:                                               ; preds = %26, %._crit_edge.i
  %28 = phi i64 [ %17, %._crit_edge.i ], [ 8, %26 ]
  %29 = phi ptr [ %.pre.i, %._crit_edge.i ], [ %19, %26 ]
  %30 = getelementptr inbounds nuw i8, ptr %0, i64 16
  tail call void @llvm.memset.p0.i64(ptr align 8 %29, i8 0, i64 %28, i1 false)
  %31 = load ptr, ptr %30, align 8, !tbaa !11
  store i64 0, ptr %31, align 8, !tbaa !13
  store i32 1, ptr %0, align 8, !tbaa !3
  br label %mbedtls_mpi_lset.exit

32:                                               ; preds = %.critedge
  %33 = add i64 %.01830, 1
  %34 = icmp ugt i64 %33, 10000
  br i1 %34, label %mbedtls_mpi_lset.exit, label %35

35:                                               ; preds = %32
  %36 = getelementptr inbounds nuw i8, ptr %0, i64 8
  %37 = load i64, ptr %36, align 8, !tbaa !12
  %38 = icmp ult i64 %37, %33
  br i1 %38, label %39, label %49

39:                                               ; preds = %35
  %40 = tail call noalias ptr @calloc(i64 noundef %33, i64 noundef 8) #16
  %41 = icmp eq ptr %40, null
  br i1 %41, label %mbedtls_mpi_lset.exit, label %42

42:                                               ; preds = %39
  %43 = getelementptr inbounds nuw i8, ptr %0, i64 16
  %44 = load ptr, ptr %43, align 8, !tbaa !11
  %.not.i = icmp eq ptr %44, null
  br i1 %.not.i, label %48, label %45

45:                                               ; preds = %42
  %46 = shl nuw nsw i64 %37, 3
  tail call void @llvm.memcpy.p0.p0.i64(ptr nonnull align 8 %40, ptr nonnull align 8 %44, i64 %46, i1 false)
  tail call void @mbedtls_platform_zeroize(ptr noundef nonnull %44, i64 noundef %46)
  %47 = load ptr, ptr %43, align 8, !tbaa !11
  tail call void @free(ptr noundef %47) #15
  br label %48

48:                                               ; preds = %45, %42
  store i64 %33, ptr %36, align 8, !tbaa !12
  store ptr %40, ptr %43, align 8, !tbaa !11
  br label %49

49:                                               ; preds = %48, %35
  %50 = tail call i32 @mbedtls_mpi_copy(ptr noundef nonnull %0, ptr noundef nonnull %1)
  %.not24 = icmp eq i32 %50, 0
  br i1 %.not24, label %51, label %mbedtls_mpi_lset.exit

51:                                               ; preds = %49
  %52 = load ptr, ptr %6, align 8, !tbaa !11
  %53 = getelementptr inbounds nuw i8, ptr %0, i64 16
  %54 = load ptr, ptr %53, align 8, !tbaa !11
  %55 = add i64 %2, -1
  tail call fastcc void @_ZL11mpi_mul_hlpmPKmPmm(i64 noundef %.01830, ptr noundef %52, ptr noundef %54, i64 noundef %55)
  br label %mbedtls_mpi_lset.exit

mbedtls_mpi_lset.exit:                            ; preds = %39, %32, %27, %18, %51, %49
  %.019 = phi i32 [ %50, %49 ], [ 0, %51 ], [ 0, %27 ], [ -16, %18 ], [ -16, %32 ], [ -16, %39 ]
  ret i32 %.019
}